target datalayout = "e-m:e-p270:32:32-p271:32:32-p272:64:64-i64:64-i128:128-f80:128-n8:16:32:64-S128"
target triple = "x86_64-pc-linux-gnu"

%struct.conn = type { ptr, i32, i8, i8, i8, i8, i8, i8, i8, i8, ptr, i32, i32, i32, %struct.event, i16, i16, ptr, ptr, i32, i32, ptr, ptr, ptr, i32, ptr, i32, i32, i32, i32, i32, i32, i32, %struct.sockaddr_in6, i32, i8, %struct.anon.8, %union.protocol_binary_request_header, i64, i64, i16, i32, i32, ptr, ptr, ptr, ptr, ptr, ptr }
%struct.event = type { %struct.event_callback, %union.anon.0, i32, ptr, %union.anon.2, i16, i16, %struct.timeval }
%struct.event_callback = type { %struct.anon, i16, i8, i8, %union.anon, ptr }
%struct.anon = type { ptr, ptr }
%union.anon = type { ptr }
%union.anon.0 = type { %struct.anon.1 }
%struct.anon.1 = type { ptr, ptr }
%union.anon.2 = type { %struct.anon.3 }
%struct.anon.3 = type { %struct.anon.4, %struct.timeval }
%struct.anon.4 = type { ptr, ptr }
%struct.timeval = type { i64, i64 }
%struct.sockaddr_in6 = type { i16, i16, i32, %struct.in6_addr, i32 }
%struct.in6_addr = type { %union.anon.7 }
%union.anon.7 = type { [4 x i32] }
%struct.anon.8 = type { ptr, i64, i64 }
%union.protocol_binary_request_header = type { %struct.anon.9 }
%struct.anon.9 = type { i8, i8, i16, i8, i8, i16, i32, i32, i64 }
%struct.LIBEVENT_THREAD = type { i64, ptr, %struct.thread_notify, %struct.thread_notify, %union.pthread_mutex_t, %struct.iop_head_s, i32, i32, i32, %struct.thread_stats, [3 x %struct.io_queue_s], ptr, ptr, ptr, ptr, ptr, ptr, ptr, i32 }
%struct.thread_notify = type { %struct.event, i32 }
%union.pthread_mutex_t = type { %struct.__pthread_mutex_s }
%struct.__pthread_mutex_s = type { i32, i32, i32, i32, i32, i16, i16, %struct.__pthread_internal_list }
%struct.__pthread_internal_list = type { ptr, ptr }
%struct.iop_head_s = type { ptr, ptr }
%struct.thread_stats = type { %union.pthread_mutex_t, i64, i64, i64, i64, i64, i64, i64, i64, i64, i64, i64, i64, i64, i64, i64, i64, i64, i64, i64, i64, i64, i64, i64, i64, i64, i64, i64, i64, i64, i64, [64 x %struct.slab_stats], [256 x i64], i64, i64, i64 }
%struct.slab_stats = type { i64, i64, i64, i64, i64, i64, i64, i64 }
%struct.io_queue_s = type { ptr, %struct.iop_head_s, ptr, i32 }
%struct.token_s = type { ptr, i64 }

@.str.4 = private unnamed_addr constant [10 x i8] c"NOT_FOUND\00", align 1
@.str.51 = private unnamed_addr constant [37 x i8] c"CLIENT_ERROR bad command line format\00", align 1
@.str.69 = private unnamed_addr constant [27 x i8] c"SERVER_ERROR out of memory\00", align 1
@.str.71 = private unnamed_addr constant [61 x i8] c"CLIENT_ERROR cannot increment or decrement non-numeric value\00", align 1
@.str.85 = private unnamed_addr constant [8 x i8] c"noreply\00", align 1
@.str.119 = private unnamed_addr constant [44 x i8] c"CLIENT_ERROR invalid numeric delta argument\00", align 1

; Function Attrs: inlinehint nounwind uwtable
define internal zeroext i1 @set_noreply_maybe(ptr noundef %0, ptr noundef %1, i64 noundef %2) #5 {
  %4 = alloca ptr, align 8
  %5 = alloca ptr, align 8
  %6 = alloca i64, align 8
  %7 = alloca i32, align 4
  store ptr %0, ptr %4, align 8, !tbaa !4
  store ptr %1, ptr %5, align 8, !tbaa !77
  store i64 %2, ptr %6, align 8, !tbaa !44
  call void @llvm.lifetime.start.p0(i64 4, ptr %7) #8
  %8 = load i64, ptr %6, align 8, !tbaa !44
  %9 = sub i64 %8, 2
  %10 = trunc i64 %9 to i32
  store i32 %10, ptr %7, align 4, !tbaa !30
  %11 = load ptr, ptr %5, align 8, !tbaa !77
  %12 = load i32, ptr %7, align 4, !tbaa !30
  %13 = sext i32 %12 to i64
  %14 = getelementptr inbounds %struct.token_s, ptr %11, i64 %13
  %15 = getelementptr inbounds nuw %struct.token_s, ptr %14, i32 0, i32 0
  %16 = load ptr, ptr %15, align 8, !tbaa !70
  %17 = icmp ne ptr %16, null
  br i1 %17, label %18, label %30

18:                                               ; preds = %3
  %19 = load ptr, ptr %5, align 8, !tbaa !77
  %20 = load i32, ptr %7, align 4, !tbaa !30
  %21 = sext i32 %20 to i64
  %22 = getelementptr inbounds %struct.token_s, ptr %19, i64 %21
  %23 = getelementptr inbounds nuw %struct.token_s, ptr %22, i32 0, i32 0
  %24 = load ptr, ptr %23, align 8, !tbaa !70
  %25 = call i32 @strcmp(ptr noundef %24, ptr noundef @.str.85) #9
  %26 = icmp eq i32 %25, 0
  br i1 %26, label %27, label %30

27:                                               ; preds = %18
  %28 = load ptr, ptr %4, align 8, !tbaa !4
  %29 = getelementptr inbounds nuw %struct.conn, ptr %28, i32 0, i32 35
  store i8 1, ptr %29, align 4, !tbaa !43
  br label %30

30:                                               ; preds = %27, %18, %3
  %31 = load ptr, ptr %4, align 8, !tbaa !4
  %32 = getelementptr inbounds nuw %struct.conn, ptr %31, i32 0, i32 35
  %33 = load i8, ptr %32, align 4, !tbaa !43, !range !40, !noundef !41
  %34 = trunc i8 %33 to i1
  call void @llvm.lifetime.end.p0(i64 4, ptr %7) #8
  ret i1 %34
}

; Function Attrs: nounwind uwtable
define internal void @process_arithmetic_command(ptr noundef %0, ptr noundef %1, i64 noundef %2, i1 noundef zeroext %3) #0 {
  %5 = alloca ptr, align 8
  %6 = alloca ptr, align 8
  %7 = alloca i64, align 8
  %8 = alloca i8, align 1
  %9 = alloca [24 x i8], align 16
  %10 = alloca i64, align 8
  %11 = alloca ptr, align 8
  %12 = alloca i64, align 8
  %13 = alloca i32, align 4
  store ptr %0, ptr %5, align 8, !tbaa !4
  store ptr %1, ptr %6, align 8, !tbaa !77
  store i64 %2, ptr %7, align 8, !tbaa !44
  %14 = zext i1 %3 to i8
  store i8 %14, ptr %8, align 1, !tbaa !31
  call void @llvm.lifetime.start.p0(i64 24, ptr %9) #8
  call void @llvm.lifetime.start.p0(i64 8, ptr %10) #8
  call void @llvm.lifetime.start.p0(i64 8, ptr %11) #8
  call void @llvm.lifetime.start.p0(i64 8, ptr %12) #8
  %15 = load ptr, ptr %5, align 8, !tbaa !4
  %16 = load ptr, ptr %6, align 8, !tbaa !77
  %17 = load i64, ptr %7, align 8, !tbaa !44
  %18 = call zeroext i1 @set_noreply_maybe(ptr noundef %15, ptr noundef %16, i64 noundef %17)
  %19 = load ptr, ptr %6, align 8, !tbaa !77
  %20 = getelementptr inbounds %struct.token_s, ptr %19, i64 1
  %21 = getelementptr inbounds nuw %struct.token_s, ptr %20, i32 0, i32 1
  %22 = load i64, ptr %21, align 8, !tbaa !79
  %23 = icmp ugt i64 %22, 250
  br i1 %23, label %24, label %26

24:                                               ; preds = %4
  %25 = load ptr, ptr %5, align 8, !tbaa !4
  call void @out_string(ptr noundef %25, ptr noundef @.str.51)
  store i32 1, ptr %13, align 4
  br label %94

26:                                               ; preds = %4
  %27 = load ptr, ptr %6, align 8, !tbaa !77
  %28 = getelementptr inbounds %struct.token_s, ptr %27, i64 1
  %29 = getelementptr inbounds nuw %struct.token_s, ptr %28, i32 0, i32 0
  %30 = load ptr, ptr %29, align 8, !tbaa !70
  store ptr %30, ptr %11, align 8, !tbaa !62
  %31 = load ptr, ptr %6, align 8, !tbaa !77
  %32 = getelementptr inbounds %struct.token_s, ptr %31, i64 1
  %33 = getelementptr inbounds nuw %struct.token_s, ptr %32, i32 0, i32 1
  %34 = load i64, ptr %33, align 8, !tbaa !79
  store i64 %34, ptr %12, align 8, !tbaa !44
  %35 = load ptr, ptr %6, align 8, !tbaa !77
  %36 = getelementptr inbounds %struct.token_s, ptr %35, i64 2
  %37 = getelementptr inbounds nuw %struct.token_s, ptr %36, i32 0, i32 0
  %38 = load ptr, ptr %37, align 8, !tbaa !70
  %39 = call zeroext i1 @safe_strtoull(ptr noundef %38, ptr noundef %10)
  br i1 %39, label %42, label %40

40:                                               ; preds = %26
  %41 = load ptr, ptr %5, align 8, !tbaa !4
  call void @out_string(ptr noundef %41, ptr noundef @.str.119)
  store i32 1, ptr %13, align 4
  br label %94

42:                                               ; preds = %26
  %43 = load ptr, ptr %5, align 8, !tbaa !4
  %44 = getelementptr inbounds nuw %struct.conn, ptr %43, i32 0, i32 44
  %45 = load ptr, ptr %44, align 8, !tbaa !32
  %46 = load ptr, ptr %11, align 8, !tbaa !62
  %47 = load i64, ptr %12, align 8, !tbaa !44
  %48 = load i8, ptr %8, align 1, !tbaa !31, !range !40, !noundef !41
  %49 = trunc i8 %48 to i1
  %50 = load i64, ptr %10, align 8, !tbaa !44
  %51 = getelementptr inbounds [24 x i8], ptr %9, i64 0, i64 0
  %52 = call i32 @add_delta(ptr noundef %45, ptr noundef %46, i64 noundef %47, i1 noundef zeroext %49, i64 noundef %50, ptr noundef %51, ptr noundef null)
  switch i32 %52, label %93 [
    i32 0, label %53
    i32 1, label %56
    i32 2, label %58
    i32 3, label %60
    i32 4, label %93
  ]

53:                                               ; preds = %42
  %54 = load ptr, ptr %5, align 8, !tbaa !4
  %55 = getelementptr inbounds [24 x i8], ptr %9, i64 0, i64 0
  call void @out_string(ptr noundef %54, ptr noundef %55)
  br label %93

56:                                               ; preds = %42
  %57 = load ptr, ptr %5, align 8, !tbaa !4
  call void @out_string(ptr noundef %57, ptr noundef @.str.71)
  br label %93

58:                                               ; preds = %42
  %59 = load ptr, ptr %5, align 8, !tbaa !4
  call void @out_of_memory(ptr noundef %59, ptr noundef @.str.69)
  br label %93

60:                                               ; preds = %42
  %61 = load ptr, ptr %5, align 8, !tbaa !4
  %62 = getelementptr inbounds nuw %struct.conn, ptr %61, i32 0, i32 44
  %63 = load ptr, ptr %62, align 8, !tbaa !32
  %64 = getelementptr inbounds nuw %struct.LIBEVENT_THREAD, ptr %63, i32 0, i32 9
  %65 = getelementptr inbounds nuw %struct.thread_stats, ptr %64, i32 0, i32 0
  %66 = call i32 @pthread_mutex_lock(ptr noundef %65) #8
  %67 = load i8, ptr %8, align 1, !tbaa !31, !range !40, !noundef !41
  %68 = trunc i8 %67 to i1
  br i1 %68, label %69, label %77

69:                                               ; preds = %60
  %70 = load ptr, ptr %5, align 8, !tbaa !4
  %71 = getelementptr inbounds nuw %struct.conn, ptr %70, i32 0, i32 44
  %72 = load ptr, ptr %71, align 8, !tbaa !32
  %73 = getelementptr inbounds nuw %struct.LIBEVENT_THREAD, ptr %72, i32 0, i32 9
  %74 = getelementptr inbounds nuw %struct.thread_stats, ptr %73, i32 0, i32 8
  %75 = load i64, ptr %74, align 8, !tbaa !123
  %76 = add i64 %75, 1
  store i64 %76, ptr %74, align 8, !tbaa !123
  br label %85

77:                                               ; preds = %60
  %78 = load ptr, ptr %5, align 8, !tbaa !4
  %79 = getelementptr inbounds nuw %struct.conn, ptr %78, i32 0, i32 44
  %80 = load ptr, ptr %79, align 8, !tbaa !32
  %81 = getelementptr inbounds nuw %struct.LIBEVENT_THREAD, ptr %80, i32 0, i32 9
  %82 = getelementptr inbounds nuw %struct.thread_stats, ptr %81, i32 0, i32 9
  %83 = load i64, ptr %82, align 8, !tbaa !124
  %84 = add i64 %83, 1
  store i64 %84, ptr %82, align 8, !tbaa !124
  br label %85

85:                                               ; preds = %77, %69
  %86 = load ptr, ptr %5, align 8, !tbaa !4
  %87 = getelementptr inbounds nuw %struct.conn, ptr %86, i32 0, i32 44
  %88 = load ptr, ptr %87, align 8, !tbaa !32
  %89 = getelementptr inbounds nuw %struct.LIBEVENT_THREAD, ptr %88, i32 0, i32 9
  %90 = getelementptr inbounds nuw %struct.thread_stats, ptr %89, i32 0, i32 0
  %91 = call i32 @pthread_mutex_unlock(ptr noundef %90) #8
  %92 = load ptr, ptr %5, align 8, !tbaa !4
  call void @out_string(ptr noundef %92, ptr noundef @.str.4)
  br label %93

93:                                               ; preds = %42, %42, %85, %58, %56, %53
  store i32 0, ptr %13, align 4
  br label %94

94:                                               ; preds = %93, %40, %24
  call void @llvm.lifetime.end.p0(i64 8, ptr %12) #8
  call void @llvm.lifetime.end.p0(i64 8, ptr %11) #8
  call void @llvm.lifetime.end.p0(i64 8, ptr %10) #8
  call void @llvm.lifetime.end.p0(i64 24, ptr %9) #8
  %95 = load i32, ptr %13, align 4
  switch i32 %95, label %97 [
    i32 0, label %96
    i32 1, label %96
  ]

96:                                               ; preds = %94, %94
  ret void

97:                                               ; preds = %94
  unreachable
}