; Function Attrs: nounwind uwtable
define internal fastcc void @process_arithmetic_command(ptr noundef %0, ptr noundef nonnull readonly captures(none) %1, i64 noundef range(i64 2, 0) %2, i1 noundef zeroext %3) unnamed_addr #0 {
  %5 = alloca [24 x i8], align 16
  %6 = alloca i64, align 8
  call void @llvm.lifetime.start.p0(i64 24, ptr nonnull %5) #13
  call void @llvm.lifetime.start.p0(i64 8, ptr nonnull %6) #13
  %7 = shl i64 %2, 32
  %sext.i = add i64 %7, -8589934592
  %8 = ashr exact i64 %sext.i, 28
  %9 = getelementptr inbounds i8, ptr %1, i64 %8
  %10 = load ptr, ptr %9, align 8, !tbaa !66
  %.not.i = icmp eq ptr %10, null
  br i1 %.not.i, label %set_noreply_maybe.exit, label %11

11:                                               ; preds = %4
  %12 = tail call i32 @strcmp(ptr noundef nonnull dereferenceable(1) %10, ptr noundef nonnull dereferenceable(8) @.str.85) #14
  %13 = icmp eq i32 %12, 0
  br i1 %13, label %14, label %set_noreply_maybe.exit

14:                                               ; preds = %11
  %15 = getelementptr inbounds nuw i8, ptr %0, i64 308
  store i8 1, ptr %15, align 4, !tbaa !39
  br label %set_noreply_maybe.exit

set_noreply_maybe.exit:                           ; preds = %4, %11, %14
  %16 = getelementptr inbounds nuw i8, ptr %1, i64 24
  %17 = load i64, ptr %16, align 8, !tbaa !68
  %18 = icmp ugt i64 %17, 250
  br i1 %18, label %19, label %20

19:                                               ; preds = %set_noreply_maybe.exit
  tail call void @out_string(ptr noundef nonnull %0, ptr noundef nonnull @.str.51) #13
  br label %45

20:                                               ; preds = %set_noreply_maybe.exit
  %21 = getelementptr inbounds nuw i8, ptr %1, i64 16
  %22 = load ptr, ptr %21, align 8, !tbaa !66
  %23 = getelementptr inbounds nuw i8, ptr %1, i64 32
  %24 = load ptr, ptr %23, align 8, !tbaa !66
  %25 = call zeroext i1 @safe_strtoull(ptr noundef %24, ptr noundef nonnull %6) #13
  br i1 %25, label %27, label %26

26:                                               ; preds = %20
  call void @out_string(ptr noundef nonnull %0, ptr noundef nonnull @.str.119) #13
  br label %45

27:                                               ; preds = %20
  %28 = getelementptr inbounds nuw i8, ptr %0, i64 400
  %29 = load ptr, ptr %28, align 8, !tbaa !28
  %30 = load i64, ptr %6, align 8, !tbaa !40
  %31 = call i32 @add_delta(ptr noundef %29, ptr noundef %22, i64 noundef %17, i1 noundef zeroext %3, i64 noundef %30, ptr noundef nonnull %5, ptr noundef null) #13
  switch i32 %31, label %45 [
    i32 0, label %32
    i32 1, label %33
    i32 2, label %34
    i32 3, label %35
  ]

32:                                               ; preds = %27
  call void @out_string(ptr noundef nonnull %0, ptr noundef nonnull %5) #13
  br label %45

33:                                               ; preds = %27
  call void @out_string(ptr noundef nonnull %0, ptr noundef nonnull @.str.71) #13
  br label %45

34:                                               ; preds = %27
  call void @out_of_memory(ptr noundef nonnull %0, ptr noundef nonnull @.str.69) #13
  br label %45

35:                                               ; preds = %27
  %36 = load ptr, ptr %28, align 8, !tbaa !28
  %37 = getelementptr inbounds nuw i8, ptr %36, i64 360
  %38 = call i32 @pthread_mutex_lock(ptr noundef nonnull %37) #13
  %39 = load ptr, ptr %28, align 8, !tbaa !28
  %. = select i1 %3, i64 456, i64 464
  %40 = getelementptr inbounds nuw i8, ptr %39, i64 %.
  %41 = load i64, ptr %40, align 8, !tbaa !40
  %42 = add i64 %41, 1
  store i64 %42, ptr %40, align 8, !tbaa !40
  %43 = getelementptr inbounds nuw i8, ptr %39, i64 360
  %44 = call i32 @pthread_mutex_unlock(ptr noundef nonnull %43) #13
  call void @out_string(ptr noundef nonnull %0, ptr noundef nonnull @.str.4) #13
  br label %45

45:                                               ; preds = %27, %32, %33, %34, %35, %26, %19
  call void @llvm.lifetime.end.p0(i64 8, ptr nonnull %6) #13
  call void @llvm.lifetime.end.p0(i64 24, ptr nonnull %5) #13
  ret void
}